; Function Attrs: mustprogress nounwind uwtable
define internal noundef zeroext i1 @"_ZNSt17_Function_handlerIFbN3spv2OpEjEZNS0_10spirvbin_t10stripDebugEvE3$_0E9_M_invokeERKSt9_Any_dataOS1_Oj"(ptr nocapture noundef nonnull readonly align 8 dereferenceable(16) %0, ptr nocapture noundef nonnull readonly align 4 dereferenceable(4) %1, ptr nocapture noundef nonnull readonly align 4 dereferenceable(4) %2) #0 align 2 {
  %.val = load ptr, ptr %0, align 8
  %.val3 = load i32, ptr %1, align 4
  %.val4 = load i32, ptr %2, align 4
  %4 = tail call noundef zeroext i1 @_ZNK3spv10spirvbin_t9isStripOpENS_2OpEj(ptr noundef nonnull align 8 dereferenceable(473) %.val, i32 noundef %.val3, i32 noundef %.val4)
  br i1 %4, label %5, label %"_ZSt10__invoke_rIbRZN3spv10spirvbin_t10stripDebugEvE3$_0JNS0_2OpEjEENSt9enable_ifIX16is_invocable_r_vIT_T0_DpT1_EES6_E4typeEOS7_DpOS8_.exit"

5:                                                ; preds = %3
  tail call void @_ZN3spv10spirvbin_t9stripInstEj(ptr noundef nonnull align 8 dereferenceable(473) %.val, i32 noundef %.val4)
  br label %"_ZSt10__invoke_rIbRZN3spv10spirvbin_t10stripDebugEvE3$_0JNS0_2OpEjEENSt9enable_ifIX16is_invocable_r_vIT_T0_DpT1_EES6_E4typeEOS7_DpOS8_.exit"

"_ZSt10__invoke_rIbRZN3spv10spirvbin_t10stripDebugEvE3$_0JNS0_2OpEjEENSt9enable_ifIX16is_invocable_r_vIT_T0_DpT1_EES6_E4typeEOS7_DpOS8_.exit": ; preds = %3, %5
  ret i1 true
}